target datalayout = "e-m:e-p270:32:32-p271:32:32-p272:64:64-i64:64-i128:128-f80:128-n8:16:32:64-S128"
target triple = "x86_64-pc-linux-gnu"

%struct.PartialDeserializedTprFile = type <{ %struct.TpxFileHeader, %"class.std::vector.16", i32, [4 x i8] }>
%struct.TpxFileHeader = type <{ i8, i8, i8, i8, i8, i8, [2 x i8], i32, i32, float, i32, i64, i32, i32, i8, [7 x i8] }>
%"class.std::vector.16" = type { %"struct.std::_Vector_base.17" }
%"struct.std::_Vector_base.17" = type { %"struct.std::_Vector_base<char, std::allocator<char>>::_Vector_impl" }
%"struct.std::_Vector_base<char, std::allocator<char>>::_Vector_impl" = type { %"struct.std::_Vector_base<char, std::allocator<char>>::_Vector_impl_data" }
%"struct.std::_Vector_base<char, std::allocator<char>>::_Vector_impl_data" = type { ptr, ptr, ptr }

; Function Attrs: mustprogress nounwind uwtable
define linkonce_odr noundef ptr @_ZNKSt6vectorIcSaIcEE11_M_data_ptrIcEEPT_S4_(ptr noundef nonnull align 8 dereferenceable(24) %0, ptr noundef %1) #1 comdat align 2 {
  %3 = alloca ptr, align 8
  %4 = alloca ptr, align 8
  store ptr %0, ptr %3, align 8
  store ptr %1, ptr %4, align 8
  %5 = load ptr, ptr %4, align 8
  ret ptr %5
}

; Function Attrs: mustprogress nounwind uwtable
define linkonce_odr noundef ptr @_ZNSt6vectorIcSaIcEE4dataEv(ptr noundef nonnull align 8 dereferenceable(24) %0) #1 comdat align 2 {
  %2 = alloca ptr, align 8
  store ptr %0, ptr %2, align 8
  %3 = load ptr, ptr %2, align 8
  %4 = getelementptr inbounds %"struct.std::_Vector_base.17", ptr %3, i32 0, i32 0
  %5 = getelementptr inbounds %"struct.std::_Vector_base<char, std::allocator<char>>::_Vector_impl_data", ptr %4, i32 0, i32 0
  %6 = load ptr, ptr %5, align 8
  %7 = call noundef ptr @_ZNKSt6vectorIcSaIcEE11_M_data_ptrIcEEPT_S4_(ptr noundef nonnull align 8 dereferenceable(24) %3, ptr noundef %6) #11
  ret ptr %7
}

; Function Attrs: mustprogress uwtable
define linkonce_odr void @_Z10nblock_abcIcEvbP10tmpi_comm_mPSt6vectorIT_SaIS3_EE(i1 noundef zeroext %0, ptr noundef %1, i64 noundef %2, ptr noundef %3) #0 comdat {
  %5 = alloca i8, align 1
  %6 = alloca ptr, align 8
  %7 = alloca i64, align 8
  %8 = alloca ptr, align 8
  %9 = zext i1 %0 to i8
  store i8 %9, ptr %5, align 1
  store ptr %1, ptr %6, align 8
  store i64 %2, ptr %7, align 8
  store ptr %3, ptr %8, align 8
  %10 = load i8, ptr %5, align 1
  %11 = trunc i8 %10 to i1
  br i1 %11, label %15, label %12

12:                                               ; preds = %4
  %13 = load ptr, ptr %8, align 8
  %14 = load i64, ptr %7, align 8
  call void @_ZNSt6vectorIcSaIcEE6resizeEm(ptr noundef nonnull align 8 dereferenceable(24) %13, i64 noundef %14)
  br label %15

15:                                               ; preds = %12, %4
  %16 = load i64, ptr %7, align 8
  %17 = mul i64 %16, 1
  %18 = load ptr, ptr %8, align 8
  %19 = call noundef ptr @_ZNSt6vectorIcSaIcEE4dataEv(ptr noundef nonnull align 8 dereferenceable(24) %18) #11
  %20 = load ptr, ptr %6, align 8
  call void @_Z9gmx_bcastmPvP10tmpi_comm_(i64 noundef %17, ptr noundef %19, ptr noundef %20)
  ret void
}

; Function Attrs: mustprogress uwtable
define linkonce_odr void @_Z8block_bcImEvP10tmpi_comm_RT_(ptr noundef %0, ptr noundef nonnull align 8 dereferenceable(8) %1) #0 comdat {
  %3 = alloca ptr, align 8
  %4 = alloca ptr, align 8
  store ptr %0, ptr %3, align 8
  store ptr %1, ptr %4, align 8
  %5 = load ptr, ptr %4, align 8
  %6 = load ptr, ptr %3, align 8
  call void @_Z9gmx_bcastmPvP10tmpi_comm_(i64 noundef 8, ptr noundef %5, ptr noundef %6)
  ret void
}

; Function Attrs: mustprogress nounwind uwtable
define linkonce_odr noundef i64 @_ZNKSt6vectorIcSaIcEE4sizeEv(ptr noundef nonnull align 8 dereferenceable(24) %0) #1 comdat align 2 {
  %2 = alloca ptr, align 8
  store ptr %0, ptr %2, align 8
  %3 = load ptr, ptr %2, align 8
  %4 = getelementptr inbounds %"struct.std::_Vector_base.17", ptr %3, i32 0, i32 0
  %5 = getelementptr inbounds %"struct.std::_Vector_base<char, std::allocator<char>>::_Vector_impl_data", ptr %4, i32 0, i32 1
  %6 = load ptr, ptr %5, align 8
  %7 = getelementptr inbounds %"struct.std::_Vector_base.17", ptr %3, i32 0, i32 0
  %8 = getelementptr inbounds %"struct.std::_Vector_base<char, std::allocator<char>>::_Vector_impl_data", ptr %7, i32 0, i32 0
  %9 = load ptr, ptr %8, align 8
  %10 = ptrtoint ptr %6 to i64
  %11 = ptrtoint ptr %9 to i64
  %12 = sub i64 %10, %11
  ret i64 %12
}

; Function Attrs: mustprogress uwtable
define linkonce_odr void @_Z8block_bcIlEvP10tmpi_comm_RT_(ptr noundef %0, ptr noundef nonnull align 8 dereferenceable(8) %1) #0 comdat {
  %3 = alloca ptr, align 8
  %4 = alloca ptr, align 8
  store ptr %0, ptr %3, align 8
  store ptr %1, ptr %4, align 8
  %5 = load ptr, ptr %4, align 8
  %6 = load ptr, ptr %3, align 8
  call void @_Z9gmx_bcastmPvP10tmpi_comm_(i64 noundef 8, ptr noundef %5, ptr noundef %6)
  ret void
}

; Function Attrs: mustprogress uwtable
define linkonce_odr void @_Z8block_bcIfEvP10tmpi_comm_RT_(ptr noundef %0, ptr noundef nonnull align 4 dereferenceable(4) %1) #0 comdat {
  %3 = alloca ptr, align 8
  %4 = alloca ptr, align 8
  store ptr %0, ptr %3, align 8
  store ptr %1, ptr %4, align 8
  %5 = load ptr, ptr %4, align 8
  %6 = load ptr, ptr %3, align 8
  call void @_Z9gmx_bcastmPvP10tmpi_comm_(i64 noundef 4, ptr noundef %5, ptr noundef %6)
  ret void
}

; Function Attrs: mustprogress uwtable
define linkonce_odr void @_Z8block_bcIiEvP10tmpi_comm_RT_(ptr noundef %0, ptr noundef nonnull align 4 dereferenceable(4) %1) #0 comdat {
  %3 = alloca ptr, align 8
  %4 = alloca ptr, align 8
  store ptr %0, ptr %3, align 8
  store ptr %1, ptr %4, align 8
  %5 = load ptr, ptr %4, align 8
  %6 = load ptr, ptr %3, align 8
  call void @_Z9gmx_bcastmPvP10tmpi_comm_(i64 noundef 4, ptr noundef %5, ptr noundef %6)
  ret void
}

; Function Attrs: mustprogress uwtable
define linkonce_odr void @_Z8block_bcIbEvP10tmpi_comm_RT_(ptr noundef %0, ptr noundef nonnull align 1 dereferenceable(1) %1) #0 comdat {
  %3 = alloca ptr, align 8
  %4 = alloca ptr, align 8
  store ptr %0, ptr %3, align 8
  store ptr %1, ptr %4, align 8
  %5 = load ptr, ptr %4, align 8
  %6 = load ptr, ptr %3, align 8
  call void @_Z9gmx_bcastmPvP10tmpi_comm_(i64 noundef 1, ptr noundef %5, ptr noundef %6)
  ret void
}

; Function Attrs: mustprogress uwtable
define internal void @_ZL16bc_tprCharBufferP10tmpi_comm_bPSt6vectorIcSaIcEE(ptr noundef %0, i1 noundef zeroext %1, ptr noundef %2) #0 {
  %4 = alloca ptr, align 8
  %5 = alloca i8, align 1
  %6 = alloca ptr, align 8
  %7 = alloca i64, align 8
  store ptr %0, ptr %4, align 8
  %8 = zext i1 %1 to i8
  store i8 %8, ptr %5, align 1
  store ptr %2, ptr %6, align 8
  %9 = load ptr, ptr %6, align 8
  %10 = call noundef i64 @_ZNKSt6vectorIcSaIcEE4sizeEv(ptr noundef nonnull align 8 dereferenceable(24) %9) #11
  store i64 %10, ptr %7, align 8
  %11 = load ptr, ptr %4, align 8
  call void @_Z8block_bcImEvP10tmpi_comm_RT_(ptr noundef %11, ptr noundef nonnull align 8 dereferenceable(8) %7)
  %12 = load i8, ptr %5, align 1
  %13 = trunc i8 %12 to i1
  %14 = load ptr, ptr %4, align 8
  %15 = load i64, ptr %7, align 8
  %16 = load ptr, ptr %6, align 8
  call void @_Z10nblock_abcIcEvbP10tmpi_comm_mPSt6vectorIT_SaIS3_EE(i1 noundef zeroext %13, ptr noundef %14, i64 noundef %15, ptr noundef %16)
  ret void
}

; Function Attrs: mustprogress uwtable
define internal void @_ZL12bc_tpxheaderP10tmpi_comm_P13TpxFileHeader(ptr noundef %0, ptr noundef %1) #0 {
  %3 = alloca ptr, align 8
  %4 = alloca ptr, align 8
  store ptr %0, ptr %3, align 8
  store ptr %1, ptr %4, align 8
  %5 = load ptr, ptr %3, align 8
  %6 = load ptr, ptr %4, align 8
  %7 = getelementptr inbounds %struct.TpxFileHeader, ptr %6, i32 0, i32 0
  call void @_Z8block_bcIbEvP10tmpi_comm_RT_(ptr noundef %5, ptr noundef nonnull align 1 dereferenceable(1) %7)
  %8 = load ptr, ptr %3, align 8
  %9 = load ptr, ptr %4, align 8
  %10 = getelementptr inbounds %struct.TpxFileHeader, ptr %9, i32 0, i32 1
  call void @_Z8block_bcIbEvP10tmpi_comm_RT_(ptr noundef %8, ptr noundef nonnull align 1 dereferenceable(1) %10)
  %11 = load ptr, ptr %3, align 8
  %12 = load ptr, ptr %4, align 8
  %13 = getelementptr inbounds %struct.TpxFileHeader, ptr %12, i32 0, i32 2
  call void @_Z8block_bcIbEvP10tmpi_comm_RT_(ptr noundef %11, ptr noundef nonnull align 1 dereferenceable(1) %13)
  %14 = load ptr, ptr %3, align 8
  %15 = load ptr, ptr %4, align 8
  %16 = getelementptr inbounds %struct.TpxFileHeader, ptr %15, i32 0, i32 3
  call void @_Z8block_bcIbEvP10tmpi_comm_RT_(ptr noundef %14, ptr noundef nonnull align 1 dereferenceable(1) %16)
  %17 = load ptr, ptr %3, align 8
  %18 = load ptr, ptr %4, align 8
  %19 = getelementptr inbounds %struct.TpxFileHeader, ptr %18, i32 0, i32 4
  call void @_Z8block_bcIbEvP10tmpi_comm_RT_(ptr noundef %17, ptr noundef nonnull align 1 dereferenceable(1) %19)
  %20 = load ptr, ptr %3, align 8
  %21 = load ptr, ptr %4, align 8
  %22 = getelementptr inbounds %struct.TpxFileHeader, ptr %21, i32 0, i32 5
  call void @_Z8block_bcIbEvP10tmpi_comm_RT_(ptr noundef %20, ptr noundef nonnull align 1 dereferenceable(1) %22)
  %23 = load ptr, ptr %3, align 8
  %24 = load ptr, ptr %4, align 8
  %25 = getelementptr inbounds %struct.TpxFileHeader, ptr %24, i32 0, i32 7
  call void @_Z8block_bcIiEvP10tmpi_comm_RT_(ptr noundef %23, ptr noundef nonnull align 4 dereferenceable(4) %25)
  %26 = load ptr, ptr %3, align 8
  %27 = load ptr, ptr %4, align 8
  %28 = getelementptr inbounds %struct.TpxFileHeader, ptr %27, i32 0, i32 8
  call void @_Z8block_bcIiEvP10tmpi_comm_RT_(ptr noundef %26, ptr noundef nonnull align 4 dereferenceable(4) %28)
  %29 = load ptr, ptr %3, align 8
  %30 = load ptr, ptr %4, align 8
  %31 = getelementptr inbounds %struct.TpxFileHeader, ptr %30, i32 0, i32 9
  call void @_Z8block_bcIfEvP10tmpi_comm_RT_(ptr noundef %29, ptr noundef nonnull align 4 dereferenceable(4) %31)
  %32 = load ptr, ptr %3, align 8
  %33 = load ptr, ptr %4, align 8
  %34 = getelementptr inbounds %struct.TpxFileHeader, ptr %33, i32 0, i32 10
  call void @_Z8block_bcIiEvP10tmpi_comm_RT_(ptr noundef %32, ptr noundef nonnull align 4 dereferenceable(4) %34)
  %35 = load ptr, ptr %3, align 8
  %36 = load ptr, ptr %4, align 8
  %37 = getelementptr inbounds %struct.TpxFileHeader, ptr %36, i32 0, i32 11
  call void @_Z8block_bcIlEvP10tmpi_comm_RT_(ptr noundef %35, ptr noundef nonnull align 8 dereferenceable(8) %37)
  %38 = load ptr, ptr %3, align 8
  %39 = load ptr, ptr %4, align 8
  %40 = getelementptr inbounds %struct.TpxFileHeader, ptr %39, i32 0, i32 12
  call void @_Z8block_bcIiEvP10tmpi_comm_RT_(ptr noundef %38, ptr noundef nonnull align 4 dereferenceable(4) %40)
  %41 = load ptr, ptr %3, align 8
  %42 = load ptr, ptr %4, align 8
  %43 = getelementptr inbounds %struct.TpxFileHeader, ptr %42, i32 0, i32 13
  call void @_Z8block_bcIiEvP10tmpi_comm_RT_(ptr noundef %41, ptr noundef nonnull align 4 dereferenceable(4) %43)
  %44 = load ptr, ptr %3, align 8
  %45 = load ptr, ptr %4, align 8
  %46 = getelementptr inbounds %struct.TpxFileHeader, ptr %45, i32 0, i32 14
  call void @_Z8block_bcIbEvP10tmpi_comm_RT_(ptr noundef %44, ptr noundef nonnull align 1 dereferenceable(1) %46)
  ret void
}

; Function Attrs: mustprogress uwtable
define void @_Z13init_parallelP10tmpi_comm_bP10t_inputrecP10gmx_mtop_tP26PartialDeserializedTprFile(ptr noundef %0, i1 noundef zeroext %1, ptr noundef %2, ptr noundef %3, ptr noundef %4) #0 {
  %6 = alloca ptr, align 8
  %7 = alloca i8, align 1
  %8 = alloca ptr, align 8
  %9 = alloca ptr, align 8
  %10 = alloca ptr, align 8
  store ptr %0, ptr %6, align 8
  %11 = zext i1 %1 to i8
  store i8 %11, ptr %7, align 1
  store ptr %2, ptr %8, align 8
  store ptr %3, ptr %9, align 8
  store ptr %4, ptr %10, align 8
  %12 = load ptr, ptr %6, align 8
  %13 = load ptr, ptr %10, align 8
  %14 = getelementptr inbounds %struct.PartialDeserializedTprFile, ptr %13, i32 0, i32 0
  call void @_ZL12bc_tpxheaderP10tmpi_comm_P13TpxFileHeader(ptr noundef %12, ptr noundef %14)
  %15 = load ptr, ptr %6, align 8
  %16 = load i8, ptr %7, align 1
  %17 = trunc i8 %16 to i1
  %18 = load ptr, ptr %10, align 8
  %19 = getelementptr inbounds %struct.PartialDeserializedTprFile, ptr %18, i32 0, i32 1
  call void @_ZL16bc_tprCharBufferP10tmpi_comm_bPSt6vectorIcSaIcEE(ptr noundef %15, i1 noundef zeroext %17, ptr noundef %19)
  %20 = load i8, ptr %7, align 1
  %21 = trunc i8 %20 to i1
  br i1 %21, label %27, label %22

22:                                               ; preds = %5
  %23 = load ptr, ptr %10, align 8
  %24 = load ptr, ptr %8, align 8
  %25 = load ptr, ptr %9, align 8
  %26 = call noundef i32 @_Z26completeTprDeserializationP26PartialDeserializedTprFileP10t_inputrecP10gmx_mtop_t(ptr noundef %23, ptr noundef %24, ptr noundef %25)
  br label %27

27:                                               ; preds = %22, %5
  ret void
}