; Function Attrs: mustprogress uwtable
define void @_Z13init_parallelP10tmpi_comm_bP10t_inputrecP10gmx_mtop_tP26PartialDeserializedTprFile(ptr noundef %0, i1 noundef zeroext %1, ptr noundef %2, ptr noundef %3, ptr noundef %4) local_unnamed_addr #0 {
  %6 = alloca i64, align 8
  tail call void @_Z9gmx_bcastmPvP10tmpi_comm_(i64 noundef 1, ptr noundef nonnull %4, ptr noundef %0)
  %7 = getelementptr inbounds i8, ptr %4, i64 1
  tail call void @_Z9gmx_bcastmPvP10tmpi_comm_(i64 noundef 1, ptr noundef nonnull %7, ptr noundef %0)
  %8 = getelementptr inbounds i8, ptr %4, i64 2
  tail call void @_Z9gmx_bcastmPvP10tmpi_comm_(i64 noundef 1, ptr noundef nonnull %8, ptr noundef %0)
  %9 = getelementptr inbounds i8, ptr %4, i64 3
  tail call void @_Z9gmx_bcastmPvP10tmpi_comm_(i64 noundef 1, ptr noundef nonnull %9, ptr noundef %0)
  %10 = getelementptr inbounds i8, ptr %4, i64 4
  tail call void @_Z9gmx_bcastmPvP10tmpi_comm_(i64 noundef 1, ptr noundef nonnull %10, ptr noundef %0)
  %11 = getelementptr inbounds i8, ptr %4, i64 5
  tail call void @_Z9gmx_bcastmPvP10tmpi_comm_(i64 noundef 1, ptr noundef nonnull %11, ptr noundef %0)
  %12 = getelementptr inbounds i8, ptr %4, i64 8
  tail call void @_Z9gmx_bcastmPvP10tmpi_comm_(i64 noundef 4, ptr noundef nonnull %12, ptr noundef %0)
  %13 = getelementptr inbounds i8, ptr %4, i64 12
  tail call void @_Z9gmx_bcastmPvP10tmpi_comm_(i64 noundef 4, ptr noundef nonnull %13, ptr noundef %0)
  %14 = getelementptr inbounds i8, ptr %4, i64 16
  tail call void @_Z9gmx_bcastmPvP10tmpi_comm_(i64 noundef 4, ptr noundef nonnull %14, ptr noundef %0)
  %15 = getelementptr inbounds i8, ptr %4, i64 20
  tail call void @_Z9gmx_bcastmPvP10tmpi_comm_(i64 noundef 4, ptr noundef nonnull %15, ptr noundef %0)
  %16 = getelementptr inbounds i8, ptr %4, i64 24
  tail call void @_Z9gmx_bcastmPvP10tmpi_comm_(i64 noundef 8, ptr noundef nonnull %16, ptr noundef %0)
  %17 = getelementptr inbounds i8, ptr %4, i64 32
  tail call void @_Z9gmx_bcastmPvP10tmpi_comm_(i64 noundef 4, ptr noundef nonnull %17, ptr noundef %0)
  %18 = getelementptr inbounds i8, ptr %4, i64 36
  tail call void @_Z9gmx_bcastmPvP10tmpi_comm_(i64 noundef 4, ptr noundef nonnull %18, ptr noundef %0)
  %19 = getelementptr inbounds i8, ptr %4, i64 40
  tail call void @_Z9gmx_bcastmPvP10tmpi_comm_(i64 noundef 1, ptr noundef nonnull %19, ptr noundef %0)
  %20 = getelementptr inbounds i8, ptr %4, i64 48
  call void @llvm.lifetime.start.p0(i64 8, ptr nonnull %6)
  %21 = getelementptr inbounds i8, ptr %4, i64 56
  %22 = load ptr, ptr %21, align 8
  %23 = load ptr, ptr %20, align 8
  %24 = ptrtoint ptr %22 to i64
  %25 = ptrtoint ptr %23 to i64
  %26 = sub i64 %24, %25
  store i64 %26, ptr %6, align 8
  call void @_Z9gmx_bcastmPvP10tmpi_comm_(i64 noundef 8, ptr noundef nonnull %6, ptr noundef %0)
  %27 = load i64, ptr %6, align 8
  br i1 %1, label %_ZL16bc_tprCharBufferP10tmpi_comm_bPSt6vectorIcSaIcEE.exit.thread, label %29

_ZL16bc_tprCharBufferP10tmpi_comm_bPSt6vectorIcSaIcEE.exit.thread: ; preds = %5
  %28 = load ptr, ptr %20, align 8
  call void @_Z9gmx_bcastmPvP10tmpi_comm_(i64 noundef %27, ptr noundef %28, ptr noundef %0)
  call void @llvm.lifetime.end.p0(i64 8, ptr nonnull %6)
  br label %32

29:                                               ; preds = %5
  call void @_ZNSt6vectorIcSaIcEE6resizeEm(ptr noundef nonnull align 8 dereferenceable(24) %20, i64 noundef %27)
  %30 = load ptr, ptr %20, align 8
  call void @_Z9gmx_bcastmPvP10tmpi_comm_(i64 noundef %27, ptr noundef %30, ptr noundef %0)
  call void @llvm.lifetime.end.p0(i64 8, ptr nonnull %6)
  %31 = call noundef i32 @_Z26completeTprDeserializationP26PartialDeserializedTprFileP10t_inputrecP10gmx_mtop_t(ptr noundef nonnull %4, ptr noundef %2, ptr noundef %3)
  br label %32

32:                                               ; preds = %_ZL16bc_tprCharBufferP10tmpi_comm_bPSt6vectorIcSaIcEE.exit.thread, %29
  ret void
}